target datalayout = "e-m:e-p270:32:32-p271:32:32-p272:64:64-i64:64-i128:128-f80:128-n8:16:32:64-S128"
target triple = "x86_64-pc-linux-gnu"

%struct.sockaddr_storage = type { i16, [118 x i8], i64 }
%struct.slurm_msg = type { %struct.sockaddr_storage, ptr, i32, i32, i32, i8, i32, i8, i32, ptr, ptr, i32, ptr, ptr, i16, i8, i16, i16, %struct.forward, ptr, %struct.sockaddr_storage, ptr }
%struct.forward = type { %struct.slurm_node_alias_addrs_t, i16, i16, ptr, i32, i16, i16 }
%struct.slurm_node_alias_addrs_t = type { i64, ptr, ptr, i32, ptr }

@.str.165 = private unnamed_addr constant [41 x i8] c"%s: %d/%d failed to send msg type %s: %m\00", align 1
@__func__._send_srun_resp_msg = private unnamed_addr constant [20 x i8] c"_send_srun_resp_msg\00", align 1

; Function Attrs: inlinehint nounwind uwtable
define internal i32 @_send_srun_resp_msg(ptr noundef %0, i32 noundef %1) #11 {
  %3 = alloca ptr, align 8
  %4 = alloca i32, align 4
  %5 = alloca i32, align 4
  %6 = alloca i32, align 4
  %7 = alloca i32, align 4
  %8 = alloca i64, align 8
  %9 = alloca i32, align 4
  %10 = alloca i32, align 4
  store ptr %0, ptr %3, align 8
  store i32 %1, ptr %4, align 4
  call void @llvm.lifetime.start.p0(i64 4, ptr %5) #12
  store i32 -1, ptr %5, align 4
  call void @llvm.lifetime.start.p0(i64 4, ptr %6) #12
  store i32 0, ptr %6, align 4
  call void @llvm.lifetime.start.p0(i64 4, ptr %7) #12
  store i32 0, ptr %7, align 4
  call void @llvm.lifetime.start.p0(i64 8, ptr %8) #12
  store i64 100000, ptr %8, align 8
  %11 = load ptr, ptr %3, align 8
  %12 = getelementptr inbounds nuw %struct.slurm_msg, ptr %11, i32 0, i32 16
  %13 = load i16, ptr %12, align 4
  call void @wait_for_resumed(i16 noundef zeroext %13)
  br label %14

14:                                               ; preds = %72, %2
  br label %15

15:                                               ; preds = %14
  %16 = load ptr, ptr %3, align 8
  %17 = getelementptr inbounds nuw %struct.slurm_msg, ptr %16, i32 0, i32 17
  %18 = load i16, ptr %17, align 2
  %19 = zext i16 %18 to i32
  %20 = icmp sge i32 %19, 10240
  br i1 %20, label %21, label %34

21:                                               ; preds = %15
  call void @llvm.lifetime.start.p0(i64 4, ptr %9) #12
  store i32 0, ptr %9, align 4
  %22 = load ptr, ptr %3, align 8
  %23 = call i32 @slurm_send_recv_rc_msg_only_one(ptr noundef %22, ptr noundef %5, i32 noundef 0)
  store i32 %23, ptr %9, align 4
  %24 = load i32, ptr %9, align 4
  %25 = icmp ne i32 %24, 0
  br i1 %25, label %30, label %26

26:                                               ; preds = %21
  %27 = load i32, ptr %5, align 4
  %28 = icmp ne i32 %27, 0
  br i1 %28, label %30, label %29

29:                                               ; preds = %26
  store i32 3, ptr %10, align 4
  br label %31

30:                                               ; preds = %26, %21
  store i32 0, ptr %10, align 4
  br label %31

31:                                               ; preds = %30, %29
  call void @llvm.lifetime.end.p0(i64 4, ptr %9) #12
  %32 = load i32, ptr %10, align 4
  switch i32 %32, label %77 [
    i32 0, label %33
    i32 3, label %75
  ]

33:                                               ; preds = %31
  br label %35

34:                                               ; preds = %15
  store i32 -1, ptr %5, align 4
  br label %75

35:                                               ; preds = %33
  %36 = load i32, ptr %7, align 4
  %37 = icmp ne i32 %36, 0
  br i1 %37, label %42, label %38

38:                                               ; preds = %35
  %39 = load i32, ptr %4, align 4
  %40 = udiv i32 %39, 1024
  %41 = add i32 %40, 5
  store i32 %41, ptr %7, align 4
  br label %42

42:                                               ; preds = %38, %35
  br label %43

43:                                               ; preds = %42
  br label %44

44:                                               ; preds = %43
  %45 = call i32 @get_log_level()
  %46 = icmp sge i32 %45, 5
  br i1 %46, label %47, label %54

47:                                               ; preds = %44
  %48 = load i32, ptr %6, align 4
  %49 = load i32, ptr %7, align 4
  %50 = load ptr, ptr %3, align 8
  %51 = getelementptr inbounds nuw %struct.slurm_msg, ptr %50, i32 0, i32 16
  %52 = load i16, ptr %51, align 4
  %53 = call ptr @rpc_num2string(i16 noundef zeroext %52)
  call void (i32, ptr, ...) @log_var(i32 noundef 5, ptr noundef @.str.165, ptr noundef @__func__._send_srun_resp_msg, i32 noundef %48, i32 noundef %49, ptr noundef %53)
  br label %54

54:                                               ; preds = %47, %44
  br label %55

55:                                               ; preds = %54
  br label %56

56:                                               ; preds = %55
  br label %57

57:                                               ; preds = %56
  br label %58

58:                                               ; preds = %57
  %59 = load i32, ptr %6, align 4
  %60 = load i32, ptr %7, align 4
  %61 = icmp sge i32 %59, %60
  br i1 %61, label %62, label %63

62:                                               ; preds = %58
  br label %75

63:                                               ; preds = %58
  %64 = load i64, ptr %8, align 8
  %65 = trunc i64 %64 to i32
  %66 = call i32 @usleep(i32 noundef %65)
  %67 = load i64, ptr %8, align 8
  %68 = icmp ult i64 %67, 800000
  br i1 %68, label %69, label %72

69:                                               ; preds = %63
  %70 = load i64, ptr %8, align 8
  %71 = mul i64 %70, 2
  store i64 %71, ptr %8, align 8
  br label %72

72:                                               ; preds = %69, %63
  %73 = load i32, ptr %6, align 4
  %74 = add nsw i32 %73, 1
  store i32 %74, ptr %6, align 4
  br label %14, !llvm.loop !44

75:                                               ; preds = %62, %34, %31
  %76 = load i32, ptr %5, align 4
  store i32 1, ptr %10, align 4
  call void @llvm.lifetime.end.p0(i64 8, ptr %8) #12
  call void @llvm.lifetime.end.p0(i64 4, ptr %7) #12
  call void @llvm.lifetime.end.p0(i64 4, ptr %6) #12
  call void @llvm.lifetime.end.p0(i64 4, ptr %5) #12
  ret i32 %76

77:                                               ; preds = %31
  unreachable
}