; Function Attrs: inlinehint nounwind uwtable
define internal fastcc i32 @_send_srun_resp_msg(ptr noundef nonnull %0, i32 noundef %1) unnamed_addr #15 {
  %3 = alloca i32, align 4
  call void @llvm.lifetime.start.p0(i64 4, ptr nonnull %3) #17
  store i32 -1, ptr %3, align 4
  %4 = getelementptr inbounds nuw i8, ptr %0, i64 212
  %5 = load i16, ptr %4, align 4
  tail call void @wait_for_resumed(i16 noundef zeroext %5) #17
  %6 = getelementptr inbounds nuw i8, ptr %0, i64 214
  %7 = load i16, ptr %6, align 2
  %8 = icmp ugt i16 %7, 10239
  br i1 %8, label %.lr.ph, label %.loopexit

.lr.ph:                                           ; preds = %2
  %9 = lshr i32 %1, 10
  %10 = add nuw nsw i32 %9, 5
  br label %11

11:                                               ; preds = %.lr.ph, %23
  %.01623 = phi i32 [ 0, %.lr.ph ], [ %28, %23 ]
  %.01722 = phi i64 [ 100000, %.lr.ph ], [ %spec.select, %23 ]
  %.01821 = phi i32 [ 0, %.lr.ph ], [ %.119, %23 ]
  %12 = call i32 @slurm_send_recv_rc_msg_only_one(ptr noundef nonnull %0, ptr noundef nonnull %3, i32 noundef 0) #17
  %13 = icmp ne i32 %12, 0
  %14 = load i32, ptr %3, align 4
  %15 = icmp ne i32 %14, 0
  %or.cond = select i1 %13, i1 true, i1 %15
  br i1 %or.cond, label %16, label %.loopexit

16:                                               ; preds = %11
  %.not = icmp eq i32 %.01821, 0
  %.119 = select i1 %.not, i32 %10, i32 %.01821
  %17 = call i32 @get_log_level() #17
  %18 = icmp sgt i32 %17, 4
  br i1 %18, label %19, label %22

19:                                               ; preds = %16
  %20 = load i16, ptr %4, align 4
  %21 = call ptr @rpc_num2string(i16 noundef zeroext %20) #17
  call void (i32, ptr, ...) @log_var(i32 noundef 5, ptr noundef nonnull @.str.165, ptr noundef nonnull @__func__._send_srun_resp_msg, i32 noundef %.01623, i32 noundef %.119, ptr noundef %21) #17
  br label %22

22:                                               ; preds = %19, %16
  %.not20 = icmp slt i32 %.01623, %.119
  br i1 %.not20, label %23, label %..loopexit.loopexit_crit_edge

..loopexit.loopexit_crit_edge:                    ; preds = %22
  %.pre.pre = load i32, ptr %3, align 4
  br label %.loopexit

23:                                               ; preds = %22
  %24 = trunc i64 %.01722 to i32
  %25 = call i32 @usleep(i32 noundef %24) #17
  %26 = icmp samesign ult i64 %.01722, 800000
  %27 = zext i1 %26 to i64
  %spec.select = shl nuw nsw i64 %.01722, %27
  %28 = add nuw nsw i32 %.01623, 1
  %29 = load i16, ptr %6, align 2
  %30 = icmp ugt i16 %29, 10239
  br i1 %30, label %11, label %.loopexit, !llvm.loop !43

.loopexit:                                        ; preds = %11, %23, %2, %..loopexit.loopexit_crit_edge
  %31 = phi i32 [ %.pre.pre, %..loopexit.loopexit_crit_edge ], [ -1, %2 ], [ -1, %23 ], [ 0, %11 ]
  call void @llvm.lifetime.end.p0(i64 4, ptr nonnull %3) #17
  ret i32 %31
}